target datalayout = "e-m:e-p270:32:32-p271:32:32-p272:64:64-i64:64-i128:128-f80:128-n8:16:32:64-S128"
target triple = "x86_64-pc-linux-gnu"

%"class.vcg::Point3" = type { [3 x float] }
%"class.vcg::face::VertexRef" = type { %"class.vcg::Arity1", [3 x ptr] }
%"class.vcg::Arity1" = type { %"class.vcg::face::InfoOcf" }
%"class.vcg::face::InfoOcf" = type { ptr }
%"class.vcg::vertex::Coord" = type <{ %"class.vcg::Arity1.44", %"class.vcg::Point3", [4 x i8] }>
%"class.vcg::Arity1.44" = type { %"class.vcg::vertex::InfoOcf" }
%"class.vcg::vertex::InfoOcf" = type { ptr }

; Function Attrs: mustprogress nounwind uwtable
define linkonce_odr noundef float @_ZNK3vcg6Point3IfEmlERKS1_(ptr noundef nonnull align 4 dereferenceable(12) %0, ptr noundef nonnull align 4 dereferenceable(12) %1) #4 comdat align 2 {
  %3 = alloca ptr, align 8
  %4 = alloca ptr, align 8
  store ptr %0, ptr %3, align 8
  store ptr %1, ptr %4, align 8
  %5 = load ptr, ptr %3, align 8
  %6 = getelementptr inbounds %"class.vcg::Point3", ptr %5, i32 0, i32 0
  %7 = getelementptr inbounds [3 x float], ptr %6, i64 0, i64 0
  %8 = load float, ptr %7, align 4
  %9 = load ptr, ptr %4, align 8
  %10 = getelementptr inbounds %"class.vcg::Point3", ptr %9, i32 0, i32 0
  %11 = getelementptr inbounds [3 x float], ptr %10, i64 0, i64 0
  %12 = load float, ptr %11, align 4
  %13 = getelementptr inbounds %"class.vcg::Point3", ptr %5, i32 0, i32 0
  %14 = getelementptr inbounds [3 x float], ptr %13, i64 0, i64 1
  %15 = load float, ptr %14, align 4
  %16 = load ptr, ptr %4, align 8
  %17 = getelementptr inbounds %"class.vcg::Point3", ptr %16, i32 0, i32 0
  %18 = getelementptr inbounds [3 x float], ptr %17, i64 0, i64 1
  %19 = load float, ptr %18, align 4
  %20 = fmul float %15, %19
  %21 = call float @llvm.fmuladd.f32(float %8, float %12, float %20)
  %22 = getelementptr inbounds %"class.vcg::Point3", ptr %5, i32 0, i32 0
  %23 = getelementptr inbounds [3 x float], ptr %22, i64 0, i64 2
  %24 = load float, ptr %23, align 4
  %25 = load ptr, ptr %4, align 8
  %26 = getelementptr inbounds %"class.vcg::Point3", ptr %25, i32 0, i32 0
  %27 = getelementptr inbounds [3 x float], ptr %26, i64 0, i64 2
  %28 = load float, ptr %27, align 4
  %29 = call float @llvm.fmuladd.f32(float %24, float %28, float %21)
  ret float %29
}

; Function Attrs: mustprogress nounwind uwtable
define linkonce_odr void @_ZN3vcg6Point3IfEC2Efff(ptr noundef nonnull align 4 dereferenceable(12) %0, float noundef %1, float noundef %2, float noundef %3) unnamed_addr #4 comdat align 2 {
  %5 = alloca ptr, align 8
  %6 = alloca float, align 4
  %7 = alloca float, align 4
  %8 = alloca float, align 4
  store ptr %0, ptr %5, align 8
  store float %1, ptr %6, align 4
  store float %2, ptr %7, align 4
  store float %3, ptr %8, align 4
  %9 = load ptr, ptr %5, align 8
  %10 = load float, ptr %6, align 4
  %11 = getelementptr inbounds %"class.vcg::Point3", ptr %9, i32 0, i32 0
  %12 = getelementptr inbounds [3 x float], ptr %11, i64 0, i64 0
  store float %10, ptr %12, align 4
  %13 = load float, ptr %7, align 4
  %14 = getelementptr inbounds %"class.vcg::Point3", ptr %9, i32 0, i32 0
  %15 = getelementptr inbounds [3 x float], ptr %14, i64 0, i64 1
  store float %13, ptr %15, align 4
  %16 = load float, ptr %8, align 4
  %17 = getelementptr inbounds %"class.vcg::Point3", ptr %9, i32 0, i32 0
  %18 = getelementptr inbounds [3 x float], ptr %17, i64 0, i64 2
  store float %16, ptr %18, align 4
  ret void
}

; Function Attrs: mustprogress nounwind uwtable
define linkonce_odr noundef float @_ZN3vcg4math3AbsEf(float noundef %0) #4 comdat {
  %2 = alloca float, align 4
  store float %0, ptr %2, align 4
  %3 = load float, ptr %2, align 4
  %4 = call float @llvm.fabs.f32(float %3)
  ret float %4
}

; Function Attrs: mustprogress uwtable
define linkonce_odr noundef float @_ZNK3vcg6Point3IfE3dotERKS1_(ptr noundef nonnull align 4 dereferenceable(12) %0, ptr noundef nonnull align 4 dereferenceable(12) %1) #5 comdat align 2 {
  %3 = alloca ptr, align 8
  %4 = alloca ptr, align 8
  store ptr %0, ptr %3, align 8
  store ptr %1, ptr %4, align 8
  %5 = load ptr, ptr %3, align 8
  %6 = load ptr, ptr %4, align 8
  %7 = call noundef float @_ZNK3vcg6Point3IfEmlERKS1_(ptr noundef nonnull align 4 dereferenceable(12) %5, ptr noundef nonnull align 4 dereferenceable(12) %6)
  ret float %7
}

; Function Attrs: mustprogress uwtable
define linkonce_odr { <2 x float>, float } @_ZNK3vcg6Point3IfEmiERKS1_(ptr noundef nonnull align 4 dereferenceable(12) %0, ptr noundef nonnull align 4 dereferenceable(12) %1) #5 comdat align 2 {
  %3 = alloca %"class.vcg::Point3", align 4
  %4 = alloca ptr, align 8
  %5 = alloca ptr, align 8
  %6 = alloca { <2 x float>, float }, align 8
  store ptr %0, ptr %4, align 8
  store ptr %1, ptr %5, align 8
  %7 = load ptr, ptr %4, align 8
  %8 = getelementptr inbounds %"class.vcg::Point3", ptr %7, i32 0, i32 0
  %9 = getelementptr inbounds [3 x float], ptr %8, i64 0, i64 0
  %10 = load float, ptr %9, align 4
  %11 = load ptr, ptr %5, align 8
  %12 = getelementptr inbounds %"class.vcg::Point3", ptr %11, i32 0, i32 0
  %13 = getelementptr inbounds [3 x float], ptr %12, i64 0, i64 0
  %14 = load float, ptr %13, align 4
  %15 = fsub float %10, %14
  %16 = getelementptr inbounds %"class.vcg::Point3", ptr %7, i32 0, i32 0
  %17 = getelementptr inbounds [3 x float], ptr %16, i64 0, i64 1
  %18 = load float, ptr %17, align 4
  %19 = load ptr, ptr %5, align 8
  %20 = getelementptr inbounds %"class.vcg::Point3", ptr %19, i32 0, i32 0
  %21 = getelementptr inbounds [3 x float], ptr %20, i64 0, i64 1
  %22 = load float, ptr %21, align 4
  %23 = fsub float %18, %22
  %24 = getelementptr inbounds %"class.vcg::Point3", ptr %7, i32 0, i32 0
  %25 = getelementptr inbounds [3 x float], ptr %24, i64 0, i64 2
  %26 = load float, ptr %25, align 4
  %27 = load ptr, ptr %5, align 8
  %28 = getelementptr inbounds %"class.vcg::Point3", ptr %27, i32 0, i32 0
  %29 = getelementptr inbounds [3 x float], ptr %28, i64 0, i64 2
  %30 = load float, ptr %29, align 4
  %31 = fsub float %26, %30
  call void @_ZN3vcg6Point3IfEC2Efff(ptr noundef nonnull align 4 dereferenceable(12) %3, float noundef %15, float noundef %23, float noundef %31)
  %32 = getelementptr inbounds %"class.vcg::Point3", ptr %3, i32 0, i32 0
  call void @llvm.memcpy.p0.p0.i64(ptr align 8 %6, ptr align 4 %32, i64 12, i1 false)
  %33 = load { <2 x float>, float }, ptr %6, align 8
  ret { <2 x float>, float } %33
}

; Function Attrs: mustprogress nounwind uwtable
define linkonce_odr noundef nonnull align 4 dereferenceable(12) ptr @_ZN3vcg6vertex5CoordINS_6Point3IfEENS_6Arity1INS0_9EmptyCoreI11CUsedTypesOEENS0_7InfoOcfEEEE1PEv(ptr noundef nonnull align 8 dereferenceable(20) %0) #4 comdat align 2 {
  %2 = alloca ptr, align 8
  store ptr %0, ptr %2, align 8
  %3 = load ptr, ptr %2, align 8
  %4 = getelementptr inbounds %"class.vcg::vertex::Coord", ptr %3, i32 0, i32 1
  ret ptr %4
}

; Function Attrs: mustprogress nounwind uwtable
define linkonce_odr noundef nonnull align 8 dereferenceable(8) ptr @_ZN3vcg4face9VertexRefINS_6Arity1INS_8FaceBaseI11CUsedTypesOEENS0_7InfoOcfEEEE1VEi(ptr noundef nonnull align 8 dereferenceable(32) %0, i32 noundef %1) #4 comdat align 2 {
  %3 = alloca ptr, align 8
  %4 = alloca i32, align 4
  store ptr %0, ptr %3, align 8
  store i32 %1, ptr %4, align 4
  %5 = load ptr, ptr %3, align 8
  %6 = getelementptr inbounds %"class.vcg::face::VertexRef", ptr %5, i32 0, i32 1
  %7 = load i32, ptr %4, align 4
  %8 = sext i32 %7 to i64
  %9 = getelementptr inbounds [3 x ptr], ptr %6, i64 0, i64 %8
  ret ptr %9
}

; Function Attrs: mustprogress uwtable
define noundef zeroext i1 @_Z8IsOnFaceN3vcg6Point3IfEEP6CFaceO(<2 x float> %0, float %1, ptr noundef %2) #13 {
  %4 = alloca %"class.vcg::Point3", align 4
  %5 = alloca { <2 x float>, float }, align 4
  %6 = alloca ptr, align 8
  %7 = alloca %"class.vcg::Point3", align 4
  %8 = alloca %"class.vcg::Point3", align 4
  %9 = alloca %"class.vcg::Point3", align 4
  %10 = alloca %"class.vcg::Point3", align 4
  %11 = alloca { <2 x float>, float }, align 8
  %12 = alloca %"class.vcg::Point3", align 4
  %13 = alloca { <2 x float>, float }, align 8
  %14 = alloca %"class.vcg::Point3", align 4
  %15 = alloca { <2 x float>, float }, align 8
  %16 = alloca float, align 4
  %17 = alloca float, align 4
  %18 = alloca float, align 4
  %19 = alloca float, align 4
  %20 = alloca float, align 4
  %21 = alloca float, align 4
  %22 = alloca float, align 4
  %23 = alloca float, align 4
  %24 = getelementptr inbounds { <2 x float>, float }, ptr %5, i32 0, i32 0
  store <2 x float> %0, ptr %24, align 4
  %25 = getelementptr inbounds { <2 x float>, float }, ptr %5, i32 0, i32 1
  store float %1, ptr %25, align 4
  call void @llvm.memcpy.p0.p0.i64(ptr align 4 %4, ptr align 4 %5, i64 12, i1 false)
  store ptr %2, ptr %6, align 8
  %26 = load ptr, ptr %6, align 8
  %27 = call noundef nonnull align 8 dereferenceable(8) ptr @_ZN3vcg4face9VertexRefINS_6Arity1INS_8FaceBaseI11CUsedTypesOEENS0_7InfoOcfEEEE1VEi(ptr noundef nonnull align 8 dereferenceable(32) %26, i32 noundef 0)
  %28 = load ptr, ptr %27, align 8
  %29 = call noundef nonnull align 4 dereferenceable(12) ptr @_ZN3vcg6vertex5CoordINS_6Point3IfEENS_6Arity1INS0_9EmptyCoreI11CUsedTypesOEENS0_7InfoOcfEEEE1PEv(ptr noundef nonnull align 8 dereferenceable(20) %28)
  call void @llvm.memcpy.p0.p0.i64(ptr align 4 %7, ptr align 4 %29, i64 12, i1 false)
  %30 = load ptr, ptr %6, align 8
  %31 = call noundef nonnull align 8 dereferenceable(8) ptr @_ZN3vcg4face9VertexRefINS_6Arity1INS_8FaceBaseI11CUsedTypesOEENS0_7InfoOcfEEEE1VEi(ptr noundef nonnull align 8 dereferenceable(32) %30, i32 noundef 2)
  %32 = load ptr, ptr %31, align 8
  %33 = call noundef nonnull align 4 dereferenceable(12) ptr @_ZN3vcg6vertex5CoordINS_6Point3IfEENS_6Arity1INS0_9EmptyCoreI11CUsedTypesOEENS0_7InfoOcfEEEE1PEv(ptr noundef nonnull align 8 dereferenceable(20) %32)
  call void @llvm.memcpy.p0.p0.i64(ptr align 4 %8, ptr align 4 %33, i64 12, i1 false)
  %34 = load ptr, ptr %6, align 8
  %35 = call noundef nonnull align 8 dereferenceable(8) ptr @_ZN3vcg4face9VertexRefINS_6Arity1INS_8FaceBaseI11CUsedTypesOEENS0_7InfoOcfEEEE1VEi(ptr noundef nonnull align 8 dereferenceable(32) %34, i32 noundef 1)
  %36 = load ptr, ptr %35, align 8
  %37 = call noundef nonnull align 4 dereferenceable(12) ptr @_ZN3vcg6vertex5CoordINS_6Point3IfEENS_6Arity1INS0_9EmptyCoreI11CUsedTypesOEENS0_7InfoOcfEEEE1PEv(ptr noundef nonnull align 8 dereferenceable(20) %36)
  call void @llvm.memcpy.p0.p0.i64(ptr align 4 %9, ptr align 4 %37, i64 12, i1 false)
  %38 = call { <2 x float>, float } @_ZNK3vcg6Point3IfEmiERKS1_(ptr noundef nonnull align 4 dereferenceable(12) %9, ptr noundef nonnull align 4 dereferenceable(12) %7)
  %39 = getelementptr inbounds %"class.vcg::Point3", ptr %10, i32 0, i32 0
  store { <2 x float>, float } %38, ptr %11, align 8
  call void @llvm.memcpy.p0.p0.i64(ptr align 4 %39, ptr align 8 %11, i64 12, i1 false)
  %40 = call { <2 x float>, float } @_ZNK3vcg6Point3IfEmiERKS1_(ptr noundef nonnull align 4 dereferenceable(12) %8, ptr noundef nonnull align 4 dereferenceable(12) %7)
  %41 = getelementptr inbounds %"class.vcg::Point3", ptr %12, i32 0, i32 0
  store { <2 x float>, float } %40, ptr %13, align 8
  call void @llvm.memcpy.p0.p0.i64(ptr align 4 %41, ptr align 8 %13, i64 12, i1 false)
  %42 = call { <2 x float>, float } @_ZNK3vcg6Point3IfEmiERKS1_(ptr noundef nonnull align 4 dereferenceable(12) %4, ptr noundef nonnull align 4 dereferenceable(12) %7)
  %43 = getelementptr inbounds %"class.vcg::Point3", ptr %14, i32 0, i32 0
  store { <2 x float>, float } %42, ptr %15, align 8
  call void @llvm.memcpy.p0.p0.i64(ptr align 4 %43, ptr align 8 %15, i64 12, i1 false)
  %44 = call noundef float @_ZNK3vcg6Point3IfE3dotERKS1_(ptr noundef nonnull align 4 dereferenceable(12) %10, ptr noundef nonnull align 4 dereferenceable(12) %10)
  store float %44, ptr %16, align 4
  %45 = call noundef float @_ZNK3vcg6Point3IfE3dotERKS1_(ptr noundef nonnull align 4 dereferenceable(12) %10, ptr noundef nonnull align 4 dereferenceable(12) %12)
  store float %45, ptr %17, align 4
  %46 = call noundef float @_ZNK3vcg6Point3IfE3dotERKS1_(ptr noundef nonnull align 4 dereferenceable(12) %10, ptr noundef nonnull align 4 dereferenceable(12) %14)
  store float %46, ptr %18, align 4
  %47 = call noundef float @_ZNK3vcg6Point3IfE3dotERKS1_(ptr noundef nonnull align 4 dereferenceable(12) %12, ptr noundef nonnull align 4 dereferenceable(12) %12)
  store float %47, ptr %19, align 4
  %48 = call noundef float @_ZNK3vcg6Point3IfE3dotERKS1_(ptr noundef nonnull align 4 dereferenceable(12) %12, ptr noundef nonnull align 4 dereferenceable(12) %14)
  store float %48, ptr %20, align 4
  %49 = load float, ptr %16, align 4
  %50 = load float, ptr %19, align 4
  %51 = load float, ptr %17, align 4
  %52 = load float, ptr %17, align 4
  %53 = fmul float %51, %52
  %54 = fneg float %53
  %55 = call float @llvm.fmuladd.f32(float %49, float %50, float %54)
  %56 = fdiv float 1.000000e+00, %55
  store float %56, ptr %21, align 4
  %57 = load float, ptr %19, align 4
  %58 = load float, ptr %18, align 4
  %59 = load float, ptr %17, align 4
  %60 = load float, ptr %20, align 4
  %61 = fmul float %59, %60
  %62 = fneg float %61
  %63 = call float @llvm.fmuladd.f32(float %57, float %58, float %62)
  %64 = load float, ptr %21, align 4
  %65 = fmul float %63, %64
  store float %65, ptr %22, align 4
  %66 = load float, ptr %16, align 4
  %67 = load float, ptr %20, align 4
  %68 = load float, ptr %17, align 4
  %69 = load float, ptr %18, align 4
  %70 = fmul float %68, %69
  %71 = fneg float %70
  %72 = call float @llvm.fmuladd.f32(float %66, float %67, float %71)
  %73 = load float, ptr %21, align 4
  %74 = fmul float %72, %73
  store float %74, ptr %23, align 4
  %75 = load float, ptr %22, align 4
  %76 = call noundef float @_ZN3vcg4math3AbsEf(float noundef %75)
  %77 = fcmp olt float %76, 0.000000e+00
  br i1 %77, label %78, label %79

78:                                               ; preds = %3
  store float 0.000000e+00, ptr %22, align 4
  br label %79

79:                                               ; preds = %78, %3
  %80 = load float, ptr %23, align 4
  %81 = call noundef float @_ZN3vcg4math3AbsEf(float noundef %80)
  %82 = fcmp olt float %81, 0.000000e+00
  br i1 %82, label %83, label %84

83:                                               ; preds = %79
  store float 0.000000e+00, ptr %23, align 4
  br label %84

84:                                               ; preds = %83, %79
  %85 = load float, ptr %22, align 4
  %86 = fcmp oge float %85, 0.000000e+00
  br i1 %86, label %87, label %95

87:                                               ; preds = %84
  %88 = load float, ptr %23, align 4
  %89 = fcmp oge float %88, 0.000000e+00
  br i1 %89, label %90, label %95

90:                                               ; preds = %87
  %91 = load float, ptr %22, align 4
  %92 = load float, ptr %23, align 4
  %93 = fadd float %91, %92
  %94 = fcmp ole float %93, 1.000000e+00
  br label %95

95:                                               ; preds = %90, %87, %84
  %96 = phi i1 [ false, %87 ], [ false, %84 ], [ %94, %90 ]
  ret i1 %96
}