; Function Attrs: mustprogress nofree norecurse nosync nounwind willreturn memory(read, inaccessiblemem: none) uwtable
define noundef zeroext i1 @_Z8IsOnFaceN3vcg6Point3IfEEP6CFaceO(<2 x float> %0, float %1, ptr nocapture noundef readonly %2) local_unnamed_addr #16 {
  %4 = getelementptr inbounds i8, ptr %2, i64 8
  %5 = load ptr, ptr %4, align 8
  %6 = getelementptr inbounds i8, ptr %5, i64 8
  %.sroa.085.0.copyload = load float, ptr %6, align 4
  %.sroa.4.0..sroa_idx = getelementptr inbounds i8, ptr %5, i64 12
  %.sroa.4.0.copyload = load float, ptr %.sroa.4.0..sroa_idx, align 4
  %.sroa.7.0..sroa_idx = getelementptr inbounds i8, ptr %5, i64 16
  %.sroa.7.0.copyload = load float, ptr %.sroa.7.0..sroa_idx, align 4
  %7 = getelementptr inbounds i8, ptr %2, i64 24
  %8 = load ptr, ptr %7, align 8
  %9 = getelementptr inbounds i8, ptr %8, i64 8
  %.sroa.082.0.copyload = load float, ptr %9, align 4
  %.sroa.283.0..sroa_idx = getelementptr inbounds i8, ptr %8, i64 12
  %.sroa.283.0.copyload = load float, ptr %.sroa.283.0..sroa_idx, align 4
  %.sroa.384.0..sroa_idx = getelementptr inbounds i8, ptr %8, i64 16
  %.sroa.384.0.copyload = load float, ptr %.sroa.384.0..sroa_idx, align 4
  %10 = getelementptr inbounds i8, ptr %2, i64 16
  %11 = load ptr, ptr %10, align 8
  %12 = getelementptr inbounds i8, ptr %11, i64 8
  %.sroa.081.0.copyload = load float, ptr %12, align 4
  %.sroa.2.0..sroa_idx = getelementptr inbounds i8, ptr %11, i64 12
  %.sroa.2.0.copyload = load float, ptr %.sroa.2.0..sroa_idx, align 4
  %.sroa.3.0..sroa_idx = getelementptr inbounds i8, ptr %11, i64 16
  %.sroa.3.0.copyload = load float, ptr %.sroa.3.0..sroa_idx, align 4
  %.sroa.092.0.vec.extract = extractelement <2 x float> %0, i64 0
  %13 = fsub float %.sroa.092.0.vec.extract, %.sroa.085.0.copyload
  %.sroa.092.4.vec.extract = extractelement <2 x float> %0, i64 1
  %14 = fsub float %.sroa.092.4.vec.extract, %.sroa.4.0.copyload
  %15 = fsub float %1, %.sroa.7.0.copyload
  %16 = insertelement <2 x float> poison, float %.sroa.081.0.copyload, i64 0
  %17 = insertelement <2 x float> %16, float %.sroa.082.0.copyload, i64 1
  %18 = insertelement <2 x float> poison, float %.sroa.085.0.copyload, i64 0
  %19 = shufflevector <2 x float> %18, <2 x float> poison, <2 x i32> zeroinitializer
  %20 = fsub <2 x float> %17, %19
  %21 = insertelement <2 x float> poison, float %.sroa.2.0.copyload, i64 0
  %22 = insertelement <2 x float> %21, float %.sroa.283.0.copyload, i64 1
  %23 = insertelement <2 x float> poison, float %.sroa.4.0.copyload, i64 0
  %24 = shufflevector <2 x float> %23, <2 x float> poison, <2 x i32> zeroinitializer
  %25 = fsub <2 x float> %22, %24
  %26 = insertelement <2 x float> poison, float %.sroa.3.0.copyload, i64 0
  %27 = insertelement <2 x float> %26, float %.sroa.384.0.copyload, i64 1
  %28 = insertelement <2 x float> poison, float %.sroa.7.0.copyload, i64 0
  %29 = shufflevector <2 x float> %28, <2 x float> poison, <2 x i32> zeroinitializer
  %30 = fsub <2 x float> %27, %29
  %shift = shufflevector <2 x float> %25, <2 x float> poison, <2 x i32> <i32 1, i32 poison>
  %31 = fmul <2 x float> %shift, %25
  %32 = extractelement <2 x float> %31, i64 0
  %33 = extractelement <2 x float> %20, i64 0
  %34 = extractelement <2 x float> %20, i64 1
  %35 = tail call float @llvm.fmuladd.f32(float %33, float %34, float %32)
  %36 = extractelement <2 x float> %30, i64 0
  %37 = extractelement <2 x float> %30, i64 1
  %38 = tail call noundef float @llvm.fmuladd.f32(float %36, float %37, float %35)
  %39 = fmul <2 x float> %25, %25
  %40 = tail call <2 x float> @llvm.fmuladd.v2f32(<2 x float> %20, <2 x float> %20, <2 x float> %39)
  %41 = tail call <2 x float> @llvm.fmuladd.v2f32(<2 x float> %30, <2 x float> %30, <2 x float> %40)
  %42 = shufflevector <2 x float> %41, <2 x float> poison, <2 x i32> <i32 1, i32 0>
  %43 = insertelement <2 x float> poison, float %14, i64 0
  %44 = shufflevector <2 x float> %43, <2 x float> poison, <2 x i32> zeroinitializer
  %45 = fmul <2 x float> %44, %25
  %46 = insertelement <2 x float> poison, float %13, i64 0
  %47 = shufflevector <2 x float> %46, <2 x float> poison, <2 x i32> zeroinitializer
  %48 = tail call <2 x float> @llvm.fmuladd.v2f32(<2 x float> %20, <2 x float> %47, <2 x float> %45)
  %49 = insertelement <2 x float> poison, float %15, i64 0
  %50 = shufflevector <2 x float> %49, <2 x float> poison, <2 x i32> zeroinitializer
  %51 = tail call <2 x float> @llvm.fmuladd.v2f32(<2 x float> %30, <2 x float> %50, <2 x float> %48)
  %52 = fneg float %38
  %53 = fmul float %38, %52
  %54 = extractelement <2 x float> %41, i64 0
  %55 = extractelement <2 x float> %41, i64 1
  %56 = tail call float @llvm.fmuladd.f32(float %54, float %55, float %53)
  %57 = fdiv float 1.000000e+00, %56
  %58 = shufflevector <2 x float> %51, <2 x float> poison, <2 x i32> <i32 1, i32 0>
  %59 = insertelement <2 x float> poison, float %52, i64 0
  %60 = shufflevector <2 x float> %59, <2 x float> poison, <2 x i32> zeroinitializer
  %61 = fmul <2 x float> %58, %60
  %62 = tail call <2 x float> @llvm.fmuladd.v2f32(<2 x float> %42, <2 x float> %51, <2 x float> %61)
  %63 = insertelement <2 x float> poison, float %57, i64 0
  %64 = shufflevector <2 x float> %63, <2 x float> poison, <2 x i32> zeroinitializer
  %65 = fmul <2 x float> %62, %64
  %66 = fcmp oge <2 x float> %65, zeroinitializer
  %shift94 = shufflevector <2 x i1> %66, <2 x i1> poison, <2 x i32> <i32 1, i32 poison>
  %67 = and <2 x i1> %66, %shift94
  %or.cond = extractelement <2 x i1> %67, i64 0
  %shift95 = shufflevector <2 x float> %65, <2 x float> poison, <2 x i32> <i32 1, i32 poison>
  %68 = fadd <2 x float> %65, %shift95
  %69 = extractelement <2 x float> %68, i64 0
  %70 = fcmp ole float %69, 1.000000e+00
  %71 = select i1 %or.cond, i1 %70, i1 false
  ret i1 %71
}